; Function Attrs: nounwind uwtable
define internal void @PredictorSub7_SSE2(ptr noundef %0, ptr noundef %1, i32 noundef %2, ptr noalias noundef %3) #1 {
  %.not31 = icmp slt i32 %2, 4
  br i1 %.not31, label %._crit_edge, label %.lr.ph.preheader

.lr.ph.preheader:                                 ; preds = %4
  %5 = zext nneg i32 %2 to i64
  br label %.lr.ph

.lr.ph:                                           ; preds = %.lr.ph.preheader, %.lr.ph
  %indvars.iv33 = phi i64 [ 0, %.lr.ph.preheader ], [ %indvars.iv.next34, %.lr.ph ]
  %indvars.iv = phi i64 [ 4, %.lr.ph.preheader ], [ %indvars.iv.next, %.lr.ph ]
  %6 = getelementptr i32, ptr %0, i64 %indvars.iv33
  %7 = getelementptr i8, ptr %6, i64 -4
  %8 = load <2 x i64>, ptr %7, align 1, !tbaa !7
  %9 = getelementptr inbounds nuw i32, ptr %1, i64 %indvars.iv33
  %10 = load <2 x i64>, ptr %9, align 1, !tbaa !7
  %11 = load <16 x i8>, ptr %6, align 1, !tbaa !7
  %12 = bitcast <2 x i64> %8 to <16 x i8>
  %13 = bitcast <2 x i64> %10 to <16 x i8>
  %14 = tail call <16 x i8> @llvm.x86.sse2.pavg.b(<16 x i8> %12, <16 x i8> %13)
  %15 = xor <2 x i64> %10, %8
  %16 = bitcast <2 x i64> %15 to <16 x i8>
  %17 = and <16 x i8> %16, splat (i8 1)
  %.neg = sub <16 x i8> %11, %14
  %18 = add <16 x i8> %.neg, %17
  %19 = getelementptr inbounds nuw i32, ptr %3, i64 %indvars.iv33
  store <16 x i8> %18, ptr %19, align 1, !tbaa !7
  %indvars.iv.next = add nuw nsw i64 %indvars.iv, 4
  %.not = icmp samesign ugt i64 %indvars.iv.next, %5
  %indvars.iv.next34 = add nuw nsw i64 %indvars.iv33, 4
  br i1 %.not, label %._crit_edge.loopexit, label %.lr.ph, !llvm.loop !44

._crit_edge.loopexit:                             ; preds = %.lr.ph
  %20 = trunc nuw nsw i64 %indvars.iv to i32
  br label %._crit_edge

._crit_edge:                                      ; preds = %._crit_edge.loopexit, %4
  %.0.lcssa = phi i32 [ 0, %4 ], [ %20, %._crit_edge.loopexit ]
  %.not24 = icmp eq i32 %.0.lcssa, %2
  br i1 %.not24, label %28, label %21

21:                                               ; preds = %._crit_edge
  %22 = load ptr, ptr getelementptr inbounds nuw (i8, ptr @VP8LPredictorsSub_C, i64 56), align 8, !tbaa !3
  %23 = zext nneg i32 %.0.lcssa to i64
  %24 = getelementptr inbounds nuw i32, ptr %0, i64 %23
  %25 = getelementptr inbounds nuw i32, ptr %1, i64 %23
  %26 = sub nsw i32 %2, %.0.lcssa
  %27 = getelementptr inbounds nuw i32, ptr %3, i64 %23
  tail call void %22(ptr noundef %24, ptr noundef %25, i32 noundef %26, ptr noundef %27) #8
  br label %28

28:                                               ; preds = %21, %._crit_edge
  ret void
}